; Function Attrs: mustprogress nounwind uwtable
define dso_local noundef ptr @_ZN5clang7CodeGen8CGCXXABI35emitTerminateForUnexpectedExceptionERNS0_15CodeGenFunctionEPN4llvm5ValueE(ptr nonnull readnone align 8 captures(none) %0, ptr noundef nonnull align 8 dereferenceable(6488) %1, ptr readnone captures(none) %2) unnamed_addr #0 align 2 {
  %4 = alloca %"class.llvm::Twine", align 8
  %5 = getelementptr inbounds nuw i8, ptr %1, i64 144
  %6 = load ptr, ptr %5, align 8
  %7 = tail call { ptr, ptr } @_ZN5clang7CodeGen13CodeGenModule14getTerminateFnEv(ptr noundef nonnull align 8 dereferenceable(3600) %6) #17
  %8 = extractvalue { ptr, ptr } %7, 0
  %9 = extractvalue { ptr, ptr } %7, 1
  %10 = getelementptr inbounds nuw i8, ptr %4, i64 32
  store i16 257, ptr %10, align 8
  %11 = call noundef ptr @_ZN5clang7CodeGen15CodeGenFunction23EmitNounwindRuntimeCallEN4llvm14FunctionCalleeERKNS2_5TwineE(ptr noundef nonnull align 8 dereferenceable(6488) %1, ptr %8, ptr %9, ptr noundef nonnull align 8 dereferenceable(34) %4) #17
  ret ptr %11
}